target datalayout = "e-m:e-p270:32:32-p271:32:32-p272:64:64-i64:64-i128:128-f80:128-n8:16:32:64-S128"
target triple = "x86_64-pc-linux-gnu"

%struct.KDF_PBKDF2 = type { ptr, ptr, i64, ptr, i64, i64, %struct.PROV_DIGEST, i32 }
%struct.PROV_DIGEST = type { ptr, ptr, ptr }
%struct.ossl_param_st = type { ptr, i32, ptr, i64, i64 }

@.str = private unnamed_addr constant [51 x i8] c"../openssl/providers/implementations/kdfs/pbkdf2.c\00", align 1
@.str.1 = private unnamed_addr constant [7 x i8] c"digest\00", align 1
@.str.7 = private unnamed_addr constant [5 x i8] c"pass\00", align 1
@.str.8 = private unnamed_addr constant [5 x i8] c"salt\00", align 1
@.str.9 = private unnamed_addr constant [5 x i8] c"iter\00", align 1
@.str.10 = private unnamed_addr constant [6 x i8] c"pkcs5\00", align 1
@__func__.kdf_pbkdf2_set_ctx_params = private unnamed_addr constant [26 x i8] c"kdf_pbkdf2_set_ctx_params\00", align 1

; Function Attrs: nounwind uwtable
define internal i32 @pbkdf2_set_membuf(ptr noundef %0, ptr noundef %1, ptr noundef %2) #0 {
  %4 = alloca i32, align 4
  %5 = alloca ptr, align 8
  %6 = alloca ptr, align 8
  %7 = alloca ptr, align 8
  store ptr %0, ptr %5, align 8, !tbaa !41
  store ptr %1, ptr %6, align 8, !tbaa !44
  store ptr %2, ptr %7, align 8, !tbaa !23
  %8 = load ptr, ptr %5, align 8, !tbaa !41
  %9 = load ptr, ptr %8, align 8, !tbaa !21
  %10 = load ptr, ptr %6, align 8, !tbaa !44
  %11 = load i64, ptr %10, align 8, !tbaa !22
  call void @CRYPTO_clear_free(ptr noundef %9, i64 noundef %11, ptr noundef @.str, i32 noundef 167)
  %12 = load ptr, ptr %5, align 8, !tbaa !41
  store ptr null, ptr %12, align 8, !tbaa !21
  %13 = load ptr, ptr %6, align 8, !tbaa !44
  store i64 0, ptr %13, align 8, !tbaa !22
  %14 = load ptr, ptr %7, align 8, !tbaa !23
  %15 = getelementptr inbounds nuw %struct.ossl_param_st, ptr %14, i32 0, i32 3
  %16 = load i64, ptr %15, align 8, !tbaa !29
  %17 = icmp eq i64 %16, 0
  br i1 %17, label %18, label %24

18:                                               ; preds = %3
  %19 = call noalias ptr @CRYPTO_malloc(i64 noundef 1, ptr noundef @.str, i32 noundef 172)
  %20 = load ptr, ptr %5, align 8, !tbaa !41
  store ptr %19, ptr %20, align 8, !tbaa !21
  %21 = icmp eq ptr %19, null
  br i1 %21, label %22, label %23

22:                                               ; preds = %18
  store i32 0, ptr %4, align 4
  br label %39

23:                                               ; preds = %18
  br label %38

24:                                               ; preds = %3
  %25 = load ptr, ptr %7, align 8, !tbaa !23
  %26 = getelementptr inbounds nuw %struct.ossl_param_st, ptr %25, i32 0, i32 2
  %27 = load ptr, ptr %26, align 8, !tbaa !46
  %28 = icmp ne ptr %27, null
  br i1 %28, label %29, label %37

29:                                               ; preds = %24
  %30 = load ptr, ptr %7, align 8, !tbaa !23
  %31 = load ptr, ptr %5, align 8, !tbaa !41
  %32 = load ptr, ptr %6, align 8, !tbaa !44
  %33 = call i32 @OSSL_PARAM_get_octet_string(ptr noundef %30, ptr noundef %31, i64 noundef 0, ptr noundef %32)
  %34 = icmp ne i32 %33, 0
  br i1 %34, label %36, label %35

35:                                               ; preds = %29
  store i32 0, ptr %4, align 4
  br label %39

36:                                               ; preds = %29
  br label %37

37:                                               ; preds = %36, %24
  br label %38

38:                                               ; preds = %37, %23
  store i32 1, ptr %4, align 4
  br label %39

39:                                               ; preds = %38, %35, %22
  %40 = load i32, ptr %4, align 4
  ret i32 %40
}

; Function Attrs: inlinehint nounwind uwtable
define internal i32 @ossl_param_is_empty(ptr noundef %0) #5 {
  %2 = alloca ptr, align 8
  store ptr %0, ptr %2, align 8, !tbaa !23
  %3 = load ptr, ptr %2, align 8, !tbaa !23
  %4 = icmp eq ptr %3, null
  br i1 %4, label %10, label %5

5:                                                ; preds = %1
  %6 = load ptr, ptr %2, align 8, !tbaa !23
  %7 = getelementptr inbounds nuw %struct.ossl_param_st, ptr %6, i32 0, i32 0
  %8 = load ptr, ptr %7, align 8, !tbaa !43
  %9 = icmp eq ptr %8, null
  br label %10

10:                                               ; preds = %5, %1
  %11 = phi i1 [ true, %1 ], [ %9, %5 ]
  %12 = zext i1 %11 to i32
  ret i32 %12
}

; Function Attrs: nounwind uwtable
define internal i32 @kdf_pbkdf2_set_ctx_params(ptr noundef %0, ptr noundef %1) #0 {
  %3 = alloca i32, align 4
  %4 = alloca ptr, align 8
  %5 = alloca ptr, align 8
  %6 = alloca ptr, align 8
  %7 = alloca ptr, align 8
  %8 = alloca ptr, align 8
  %9 = alloca i32, align 4
  %10 = alloca i64, align 8
  %11 = alloca i64, align 8
  %12 = alloca ptr, align 8
  %13 = alloca i32, align 4
  store ptr %0, ptr %4, align 8, !tbaa !3
  store ptr %1, ptr %5, align 8, !tbaa !23
  call void @llvm.lifetime.start.p0(i64 8, ptr %6) #6
  call void @llvm.lifetime.start.p0(i64 8, ptr %7) #6
  %14 = load ptr, ptr %4, align 8, !tbaa !3
  store ptr %14, ptr %7, align 8, !tbaa !3
  call void @llvm.lifetime.start.p0(i64 8, ptr %8) #6
  %15 = load ptr, ptr %7, align 8, !tbaa !3
  %16 = getelementptr inbounds nuw %struct.KDF_PBKDF2, ptr %15, i32 0, i32 0
  %17 = load ptr, ptr %16, align 8, !tbaa !7
  %18 = call ptr @ossl_prov_ctx_get0_libctx(ptr noundef %17)
  store ptr %18, ptr %8, align 8, !tbaa !26
  call void @llvm.lifetime.start.p0(i64 4, ptr %9) #6
  call void @llvm.lifetime.start.p0(i64 8, ptr %10) #6
  call void @llvm.lifetime.start.p0(i64 8, ptr %11) #6
  call void @llvm.lifetime.start.p0(i64 8, ptr %12) #6
  %19 = load ptr, ptr %5, align 8, !tbaa !23
  %20 = call i32 @ossl_param_is_empty(ptr noundef %19)
  %21 = icmp ne i32 %20, 0
  br i1 %21, label %22, label %23

22:                                               ; preds = %2
  store i32 1, ptr %3, align 4
  store i32 1, ptr %13, align 4
  br label %123

23:                                               ; preds = %2
  %24 = load ptr, ptr %5, align 8, !tbaa !23
  %25 = call ptr @OSSL_PARAM_locate_const(ptr noundef %24, ptr noundef @.str.1)
  %26 = icmp ne ptr %25, null
  br i1 %26, label %27, label %44

27:                                               ; preds = %23
  %28 = load ptr, ptr %7, align 8, !tbaa !3
  %29 = getelementptr inbounds nuw %struct.KDF_PBKDF2, ptr %28, i32 0, i32 6
  %30 = load ptr, ptr %5, align 8, !tbaa !23
  %31 = load ptr, ptr %8, align 8, !tbaa !26
  %32 = call i32 @ossl_prov_digest_load_from_params(ptr noundef %29, ptr noundef %30, ptr noundef %31)
  %33 = icmp ne i32 %32, 0
  br i1 %33, label %35, label %34

34:                                               ; preds = %27
  store i32 0, ptr %3, align 4
  store i32 1, ptr %13, align 4
  br label %123

35:                                               ; preds = %27
  %36 = load ptr, ptr %7, align 8, !tbaa !3
  %37 = getelementptr inbounds nuw %struct.KDF_PBKDF2, ptr %36, i32 0, i32 6
  %38 = call ptr @ossl_prov_digest_md(ptr noundef %37)
  store ptr %38, ptr %12, align 8, !tbaa !25
  %39 = load ptr, ptr %12, align 8, !tbaa !25
  %40 = call i32 @EVP_MD_xof(ptr noundef %39)
  %41 = icmp ne i32 %40, 0
  br i1 %41, label %42, label %43

42:                                               ; preds = %35
  call void @ERR_new()
  call void @ERR_set_debug(ptr noundef @.str, i32 noundef 270, ptr noundef @__func__.kdf_pbkdf2_set_ctx_params)
  call void (i32, i32, ptr, ...) @ERR_set_error(i32 noundef 57, i32 noundef 183, ptr noundef null)
  store i32 0, ptr %3, align 4
  store i32 1, ptr %13, align 4
  br label %123

43:                                               ; preds = %35
  br label %44

44:                                               ; preds = %43, %23
  %45 = load ptr, ptr %5, align 8, !tbaa !23
  %46 = call ptr @OSSL_PARAM_locate_const(ptr noundef %45, ptr noundef @.str.10)
  store ptr %46, ptr %6, align 8, !tbaa !23
  %47 = icmp ne ptr %46, null
  br i1 %47, label %48, label %59

48:                                               ; preds = %44
  %49 = load ptr, ptr %6, align 8, !tbaa !23
  %50 = call i32 @OSSL_PARAM_get_int(ptr noundef %49, ptr noundef %9)
  %51 = icmp ne i32 %50, 0
  br i1 %51, label %53, label %52

52:                                               ; preds = %48
  store i32 0, ptr %3, align 4
  store i32 1, ptr %13, align 4
  br label %123

53:                                               ; preds = %48
  %54 = load i32, ptr %9, align 4, !tbaa !28
  %55 = icmp eq i32 %54, 0
  %56 = zext i1 %55 to i32
  %57 = load ptr, ptr %7, align 8, !tbaa !3
  %58 = getelementptr inbounds nuw %struct.KDF_PBKDF2, ptr %57, i32 0, i32 7
  store i32 %56, ptr %58, align 8, !tbaa !20
  br label %59

59:                                               ; preds = %53, %44
  %60 = load ptr, ptr %5, align 8, !tbaa !23
  %61 = call ptr @OSSL_PARAM_locate_const(ptr noundef %60, ptr noundef @.str.7)
  store ptr %61, ptr %6, align 8, !tbaa !23
  %62 = icmp ne ptr %61, null
  br i1 %62, label %63, label %73

63:                                               ; preds = %59
  %64 = load ptr, ptr %7, align 8, !tbaa !3
  %65 = getelementptr inbounds nuw %struct.KDF_PBKDF2, ptr %64, i32 0, i32 1
  %66 = load ptr, ptr %7, align 8, !tbaa !3
  %67 = getelementptr inbounds nuw %struct.KDF_PBKDF2, ptr %66, i32 0, i32 2
  %68 = load ptr, ptr %6, align 8, !tbaa !23
  %69 = call i32 @pbkdf2_set_membuf(ptr noundef %65, ptr noundef %67, ptr noundef %68)
  %70 = icmp ne i32 %69, 0
  br i1 %70, label %72, label %71

71:                                               ; preds = %63
  store i32 0, ptr %3, align 4
  store i32 1, ptr %13, align 4
  br label %123

72:                                               ; preds = %63
  br label %73

73:                                               ; preds = %72, %59
  %74 = load ptr, ptr %5, align 8, !tbaa !23
  %75 = call ptr @OSSL_PARAM_locate_const(ptr noundef %74, ptr noundef @.str.8)
  store ptr %75, ptr %6, align 8, !tbaa !23
  %76 = icmp ne ptr %75, null
  br i1 %76, label %77, label %98

77:                                               ; preds = %73
  %78 = load ptr, ptr %7, align 8, !tbaa !3
  %79 = getelementptr inbounds nuw %struct.KDF_PBKDF2, ptr %78, i32 0, i32 7
  %80 = load i32, ptr %79, align 8, !tbaa !20
  %81 = icmp ne i32 %80, 0
  br i1 %81, label %82, label %88

82:                                               ; preds = %77
  %83 = load ptr, ptr %6, align 8, !tbaa !23
  %84 = getelementptr inbounds nuw %struct.ossl_param_st, ptr %83, i32 0, i32 3
  %85 = load i64, ptr %84, align 8, !tbaa !29
  %86 = icmp ult i64 %85, 16
  br i1 %86, label %87, label %88

87:                                               ; preds = %82
  call void @ERR_new()
  call void @ERR_set_debug(ptr noundef @.str, i32 noundef 293, ptr noundef @__func__.kdf_pbkdf2_set_ctx_params)
  call void (i32, i32, ptr, ...) @ERR_set_error(i32 noundef 57, i32 noundef 112, ptr noundef null)
  store i32 0, ptr %3, align 4
  store i32 1, ptr %13, align 4
  br label %123

88:                                               ; preds = %82, %77
  %89 = load ptr, ptr %7, align 8, !tbaa !3
  %90 = getelementptr inbounds nuw %struct.KDF_PBKDF2, ptr %89, i32 0, i32 3
  %91 = load ptr, ptr %7, align 8, !tbaa !3
  %92 = getelementptr inbounds nuw %struct.KDF_PBKDF2, ptr %91, i32 0, i32 4
  %93 = load ptr, ptr %6, align 8, !tbaa !23
  %94 = call i32 @pbkdf2_set_membuf(ptr noundef %90, ptr noundef %92, ptr noundef %93)
  %95 = icmp ne i32 %94, 0
  br i1 %95, label %97, label %96

96:                                               ; preds = %88
  store i32 0, ptr %3, align 4
  store i32 1, ptr %13, align 4
  br label %123

97:                                               ; preds = %88
  br label %98

98:                                               ; preds = %97, %73
  %99 = load ptr, ptr %5, align 8, !tbaa !23
  %100 = call ptr @OSSL_PARAM_locate_const(ptr noundef %99, ptr noundef @.str.9)
  store ptr %100, ptr %6, align 8, !tbaa !23
  %101 = icmp ne ptr %100, null
  br i1 %101, label %102, label %122

102:                                              ; preds = %98
  %103 = load ptr, ptr %6, align 8, !tbaa !23
  %104 = call i32 @OSSL_PARAM_get_uint64(ptr noundef %103, ptr noundef %10)
  %105 = icmp ne i32 %104, 0
  br i1 %105, label %107, label %106

106:                                              ; preds = %102
  store i32 0, ptr %3, align 4
  store i32 1, ptr %13, align 4
  br label %123

107:                                              ; preds = %102
  %108 = load ptr, ptr %7, align 8, !tbaa !3
  %109 = getelementptr inbounds nuw %struct.KDF_PBKDF2, ptr %108, i32 0, i32 7
  %110 = load i32, ptr %109, align 8, !tbaa !20
  %111 = icmp ne i32 %110, 0
  %112 = select i1 %111, i32 1000, i32 1
  %113 = sext i32 %112 to i64
  store i64 %113, ptr %11, align 8, !tbaa !22
  %114 = load i64, ptr %10, align 8, !tbaa !22
  %115 = load i64, ptr %11, align 8, !tbaa !22
  %116 = icmp ult i64 %114, %115
  br i1 %116, label %117, label %118

117:                                              ; preds = %107
  call void @ERR_new()
  call void @ERR_set_debug(ptr noundef @.str, i32 noundef 305, ptr noundef @__func__.kdf_pbkdf2_set_ctx_params)
  call void (i32, i32, ptr, ...) @ERR_set_error(i32 noundef 57, i32 noundef 123, ptr noundef null)
  store i32 0, ptr %3, align 4
  store i32 1, ptr %13, align 4
  br label %123

118:                                              ; preds = %107
  %119 = load i64, ptr %10, align 8, !tbaa !22
  %120 = load ptr, ptr %7, align 8, !tbaa !3
  %121 = getelementptr inbounds nuw %struct.KDF_PBKDF2, ptr %120, i32 0, i32 5
  store i64 %119, ptr %121, align 8, !tbaa !19
  br label %122

122:                                              ; preds = %118, %98
  store i32 1, ptr %3, align 4
  store i32 1, ptr %13, align 4
  br label %123

123:                                              ; preds = %122, %117, %106, %96, %87, %71, %52, %42, %34, %22
  call void @llvm.lifetime.end.p0(i64 8, ptr %12) #6
  call void @llvm.lifetime.end.p0(i64 8, ptr %11) #6
  call void @llvm.lifetime.end.p0(i64 8, ptr %10) #6
  call void @llvm.lifetime.end.p0(i64 4, ptr %9) #6
  call void @llvm.lifetime.end.p0(i64 8, ptr %8) #6
  call void @llvm.lifetime.end.p0(i64 8, ptr %7) #6
  call void @llvm.lifetime.end.p0(i64 8, ptr %6) #6
  %124 = load i32, ptr %3, align 4
  ret i32 %124
}