; Function Attrs: nounwind uwtable
define internal range(i32 0, 2) i32 @kdf_pbkdf2_set_ctx_params(ptr noundef %0, ptr noundef %1) #0 {
  %3 = alloca i32, align 4
  %4 = alloca i64, align 8
  %5 = load ptr, ptr %0, align 8, !tbaa !3
  %6 = tail call ptr @ossl_prov_ctx_get0_libctx(ptr noundef %5) #7
  call void @llvm.lifetime.start.p0(i64 4, ptr nonnull %3) #7
  call void @llvm.lifetime.start.p0(i64 8, ptr nonnull %4) #7
  %7 = icmp eq ptr %1, null
  br i1 %7, label %ossl_param_is_empty.exit.thread, label %ossl_param_is_empty.exit

ossl_param_is_empty.exit:                         ; preds = %2
  %8 = load ptr, ptr %1, align 8, !tbaa !26
  %.not = icmp eq ptr %8, null
  br i1 %.not, label %ossl_param_is_empty.exit.thread, label %9

9:                                                ; preds = %ossl_param_is_empty.exit
  %10 = tail call ptr @OSSL_PARAM_locate_const(ptr noundef nonnull %1, ptr noundef nonnull @.str.1) #7
  %.not32 = icmp eq ptr %10, null
  br i1 %.not32, label %18, label %11

11:                                               ; preds = %9
  %12 = getelementptr inbounds nuw i8, ptr %0, i64 48
  %13 = tail call i32 @ossl_prov_digest_load_from_params(ptr noundef nonnull %12, ptr noundef nonnull %1, ptr noundef %6) #7
  %.not33 = icmp eq i32 %13, 0
  br i1 %.not33, label %ossl_param_is_empty.exit.thread, label %14

14:                                               ; preds = %11
  %15 = tail call ptr @ossl_prov_digest_md(ptr noundef nonnull %12) #7
  %16 = tail call i32 @EVP_MD_xof(ptr noundef %15) #7
  %.not34 = icmp eq i32 %16, 0
  br i1 %.not34, label %18, label %17

17:                                               ; preds = %14
  tail call void @ERR_new() #7
  tail call void @ERR_set_debug(ptr noundef nonnull @.str, i32 noundef 270, ptr noundef nonnull @__func__.kdf_pbkdf2_set_ctx_params) #7
  tail call void (i32, i32, ptr, ...) @ERR_set_error(i32 noundef 57, i32 noundef 183, ptr noundef null) #7
  br label %ossl_param_is_empty.exit.thread

18:                                               ; preds = %14, %9
  %19 = tail call ptr @OSSL_PARAM_locate_const(ptr noundef nonnull %1, ptr noundef nonnull @.str.10) #7
  %.not35 = icmp eq ptr %19, null
  br i1 %.not35, label %27, label %20

20:                                               ; preds = %18
  %21 = call i32 @OSSL_PARAM_get_int(ptr noundef nonnull %19, ptr noundef nonnull %3) #7
  %.not36 = icmp eq i32 %21, 0
  br i1 %.not36, label %ossl_param_is_empty.exit.thread, label %22

22:                                               ; preds = %20
  %23 = load i32, ptr %3, align 4, !tbaa !15
  %24 = icmp eq i32 %23, 0
  %25 = zext i1 %24 to i32
  %26 = getelementptr inbounds nuw i8, ptr %0, i64 72
  store i32 %25, ptr %26, align 8, !tbaa !16
  br label %27

27:                                               ; preds = %22, %18
  %28 = call ptr @OSSL_PARAM_locate_const(ptr noundef nonnull %1, ptr noundef nonnull @.str.7) #7
  %.not37 = icmp eq ptr %28, null
  br i1 %.not37, label %pbkdf2_set_membuf.exit, label %29

29:                                               ; preds = %27
  %30 = getelementptr inbounds nuw i8, ptr %0, i64 8
  %31 = getelementptr inbounds nuw i8, ptr %0, i64 16
  %32 = load ptr, ptr %30, align 8, !tbaa !28
  %33 = load i64, ptr %31, align 8, !tbaa !29
  call void @CRYPTO_clear_free(ptr noundef %32, i64 noundef %33, ptr noundef nonnull @.str, i32 noundef 167) #7
  %34 = getelementptr inbounds nuw i8, ptr %28, i64 24
  call void @llvm.memset.p0.i64(ptr noundef nonnull align 8 dereferenceable(16) %30, i8 0, i64 16, i1 false)
  %35 = load i64, ptr %34, align 8, !tbaa !30
  %36 = icmp eq i64 %35, 0
  br i1 %36, label %37, label %40

37:                                               ; preds = %29
  %38 = call noalias ptr @CRYPTO_malloc(i64 noundef 1, ptr noundef nonnull @.str, i32 noundef 172) #7
  store ptr %38, ptr %30, align 8, !tbaa !28
  %39 = icmp eq ptr %38, null
  br i1 %39, label %ossl_param_is_empty.exit.thread, label %pbkdf2_set_membuf.exit

40:                                               ; preds = %29
  %41 = getelementptr inbounds nuw i8, ptr %28, i64 16
  %42 = load ptr, ptr %41, align 8, !tbaa !31
  %.not.i = icmp eq ptr %42, null
  br i1 %.not.i, label %pbkdf2_set_membuf.exit, label %43

43:                                               ; preds = %40
  %44 = call i32 @OSSL_PARAM_get_octet_string(ptr noundef nonnull %28, ptr noundef nonnull %30, i64 noundef 0, ptr noundef nonnull %31) #7
  %.not10.i = icmp eq i32 %44, 0
  br i1 %.not10.i, label %ossl_param_is_empty.exit.thread, label %pbkdf2_set_membuf.exit

pbkdf2_set_membuf.exit:                           ; preds = %43, %40, %37, %27
  %45 = call ptr @OSSL_PARAM_locate_const(ptr noundef nonnull %1, ptr noundef nonnull @.str.8) #7
  %.not39 = icmp eq ptr %45, null
  br i1 %.not39, label %pbkdf2_set_membuf.exit48, label %46

46:                                               ; preds = %pbkdf2_set_membuf.exit
  %47 = getelementptr inbounds nuw i8, ptr %0, i64 72
  %48 = load i32, ptr %47, align 8, !tbaa !16
  %.not40 = icmp eq i32 %48, 0
  br i1 %.not40, label %54, label %49

49:                                               ; preds = %46
  %50 = getelementptr inbounds nuw i8, ptr %45, i64 24
  %51 = load i64, ptr %50, align 8, !tbaa !30
  %52 = icmp ult i64 %51, 16
  br i1 %52, label %53, label %54

53:                                               ; preds = %49
  call void @ERR_new() #7
  call void @ERR_set_debug(ptr noundef nonnull @.str, i32 noundef 293, ptr noundef nonnull @__func__.kdf_pbkdf2_set_ctx_params) #7
  call void (i32, i32, ptr, ...) @ERR_set_error(i32 noundef 57, i32 noundef 112, ptr noundef null) #7
  br label %ossl_param_is_empty.exit.thread

54:                                               ; preds = %49, %46
  %55 = getelementptr inbounds nuw i8, ptr %0, i64 24
  %56 = getelementptr inbounds nuw i8, ptr %0, i64 32
  %57 = load ptr, ptr %55, align 8, !tbaa !28
  %58 = load i64, ptr %56, align 8, !tbaa !29
  call void @CRYPTO_clear_free(ptr noundef %57, i64 noundef %58, ptr noundef nonnull @.str, i32 noundef 167) #7
  %59 = getelementptr inbounds nuw i8, ptr %45, i64 24
  call void @llvm.memset.p0.i64(ptr noundef nonnull align 8 dereferenceable(16) %55, i8 0, i64 16, i1 false)
  %60 = load i64, ptr %59, align 8, !tbaa !30
  %61 = icmp eq i64 %60, 0
  br i1 %61, label %62, label %65

62:                                               ; preds = %54
  %63 = call noalias ptr @CRYPTO_malloc(i64 noundef 1, ptr noundef nonnull @.str, i32 noundef 172) #7
  store ptr %63, ptr %55, align 8, !tbaa !28
  %64 = icmp eq ptr %63, null
  br i1 %64, label %ossl_param_is_empty.exit.thread, label %pbkdf2_set_membuf.exit48

65:                                               ; preds = %54
  %66 = getelementptr inbounds nuw i8, ptr %45, i64 16
  %67 = load ptr, ptr %66, align 8, !tbaa !31
  %.not.i45 = icmp eq ptr %67, null
  br i1 %.not.i45, label %pbkdf2_set_membuf.exit48, label %68

68:                                               ; preds = %65
  %69 = call i32 @OSSL_PARAM_get_octet_string(ptr noundef nonnull %45, ptr noundef nonnull %55, i64 noundef 0, ptr noundef nonnull %56) #7
  %.not10.i46 = icmp eq i32 %69, 0
  br i1 %.not10.i46, label %ossl_param_is_empty.exit.thread, label %pbkdf2_set_membuf.exit48

pbkdf2_set_membuf.exit48:                         ; preds = %68, %65, %62, %pbkdf2_set_membuf.exit
  %70 = call ptr @OSSL_PARAM_locate_const(ptr noundef nonnull %1, ptr noundef nonnull @.str.9) #7
  %.not42 = icmp eq ptr %70, null
  br i1 %.not42, label %ossl_param_is_empty.exit.thread, label %71

71:                                               ; preds = %pbkdf2_set_membuf.exit48
  %72 = call i32 @OSSL_PARAM_get_uint64(ptr noundef nonnull %70, ptr noundef nonnull %4) #7
  %.not43 = icmp eq i32 %72, 0
  br i1 %.not43, label %ossl_param_is_empty.exit.thread, label %73

73:                                               ; preds = %71
  %74 = getelementptr inbounds nuw i8, ptr %0, i64 72
  %75 = load i32, ptr %74, align 8, !tbaa !16
  %.not44 = icmp eq i32 %75, 0
  %76 = select i1 %.not44, i64 1, i64 1000
  %77 = load i64, ptr %4, align 8, !tbaa !29
  %78 = icmp ult i64 %77, %76
  br i1 %78, label %79, label %80

79:                                               ; preds = %73
  call void @ERR_new() #7
  call void @ERR_set_debug(ptr noundef nonnull @.str, i32 noundef 305, ptr noundef nonnull @__func__.kdf_pbkdf2_set_ctx_params) #7
  call void (i32, i32, ptr, ...) @ERR_set_error(i32 noundef 57, i32 noundef 123, ptr noundef null) #7
  br label %ossl_param_is_empty.exit.thread

80:                                               ; preds = %73
  %81 = getelementptr inbounds nuw i8, ptr %0, i64 40
  store i64 %77, ptr %81, align 8, !tbaa !14
  br label %ossl_param_is_empty.exit.thread

ossl_param_is_empty.exit.thread:                  ; preds = %68, %62, %43, %37, %2, %pbkdf2_set_membuf.exit48, %80, %71, %20, %11, %ossl_param_is_empty.exit, %79, %53, %17
  %.0 = phi i32 [ 0, %17 ], [ 0, %53 ], [ 0, %79 ], [ 1, %ossl_param_is_empty.exit ], [ 0, %11 ], [ 0, %20 ], [ 0, %71 ], [ 1, %80 ], [ 1, %pbkdf2_set_membuf.exit48 ], [ 1, %2 ], [ 0, %37 ], [ 0, %43 ], [ 0, %62 ], [ 0, %68 ]
  call void @llvm.lifetime.end.p0(i64 8, ptr nonnull %4) #7
  call void @llvm.lifetime.end.p0(i64 4, ptr nonnull %3) #7
  ret i32 %.0
}